target datalayout = "e-m:e-p270:32:32-p271:32:32-p272:64:64-i64:64-i128:128-f80:128-n8:16:32:64-S128"
target triple = "x86_64-unknown-linux-gnu"

%"class.zmq::plain_client_t" = type <{ %"class.zmq::mechanism_base_t", i32, [4 x i8] }>
%"class.zmq::mechanism_base_t" = type { %"class.zmq::mechanism_t", ptr }
%"class.zmq::mechanism_t" = type { ptr, %"struct.zmq::options_t", %"class.std::map", %"class.std::map", %"struct.zmq::blob_t", %"struct.zmq::blob_t" }
%"struct.zmq::options_t" = type { i32, i32, i64, i8, [256 x i8], i32, i32, i32, i32, i32, i32, i32, i32, i8, %"struct.zmq::atomic_value_t", i32, i32, i32, i32, i32, i32, i64, i32, i32, i8, i32, i8, i8, i8, i8, i8, %"class.std::__cxx11::basic_string", %"class.std::__cxx11::basic_string", %"class.std::__cxx11::basic_string", i32, i32, i32, i32, %"class.std::vector", %"class.std::set", %"class.std::set", %"class.std::set.6", i32, i32, %"class.std::__cxx11::basic_string", %"class.std::__cxx11::basic_string", %"class.std::__cxx11::basic_string", [32 x i8], [32 x i8], [32 x i8], %"class.std::__cxx11::basic_string", %"class.std::__cxx11::basic_string", i32, i32, i8, i32, i8, i32, i8, i16, i32, i32, i32, %"class.std::__cxx11::basic_string", i8, i8, i8, i32, i32, i8, i32, %"class.std::map", i32, %"class.std::__cxx11::basic_string", %"class.std::__cxx11::basic_string", %"class.std::__cxx11::basic_string", %"class.std::__cxx11::basic_string", i8, %"class.std::vector.21", i8, %"class.std::vector.21", i8, %"class.std::vector.21", i8, i32, i8, i32, i32, i32, i32, i32, i8, i32 }
%"struct.zmq::atomic_value_t" = type { %"struct.std::atomic" }
%"struct.std::atomic" = type { %"struct.std::__atomic_base" }
%"struct.std::__atomic_base" = type { i32 }
%"class.std::vector" = type { %"struct.std::_Vector_base" }
%"struct.std::_Vector_base" = type { %"struct.std::_Vector_base<zmq::tcp_address_mask_t, std::allocator<zmq::tcp_address_mask_t>>::_Vector_impl" }
%"struct.std::_Vector_base<zmq::tcp_address_mask_t, std::allocator<zmq::tcp_address_mask_t>>::_Vector_impl" = type { %"struct.std::_Vector_base<zmq::tcp_address_mask_t, std::allocator<zmq::tcp_address_mask_t>>::_Vector_impl_data" }
%"struct.std::_Vector_base<zmq::tcp_address_mask_t, std::allocator<zmq::tcp_address_mask_t>>::_Vector_impl_data" = type { ptr, ptr, ptr }
%"class.std::set" = type { %"class.std::_Rb_tree" }
%"class.std::_Rb_tree" = type { %"struct.std::_Rb_tree<unsigned int, unsigned int, std::_Identity<unsigned int>, std::less<unsigned int>>::_Rb_tree_impl" }
%"struct.std::_Rb_tree<unsigned int, unsigned int, std::_Identity<unsigned int>, std::less<unsigned int>>::_Rb_tree_impl" = type { %"struct.std::_Rb_tree_key_compare", %"struct.std::_Rb_tree_header" }
%"struct.std::_Rb_tree_key_compare" = type { %"struct.std::less" }
%"struct.std::less" = type { i8 }
%"struct.std::_Rb_tree_header" = type { %"struct.std::_Rb_tree_node_base", i64 }
%"struct.std::_Rb_tree_node_base" = type { i32, ptr, ptr, ptr }
%"class.std::set.6" = type { %"class.std::_Rb_tree.7" }
%"class.std::_Rb_tree.7" = type { %"struct.std::_Rb_tree<int, int, std::_Identity<int>, std::less<int>>::_Rb_tree_impl" }
%"struct.std::_Rb_tree<int, int, std::_Identity<int>, std::less<int>>::_Rb_tree_impl" = type { %"struct.std::_Rb_tree_key_compare.11", %"struct.std::_Rb_tree_header" }
%"struct.std::_Rb_tree_key_compare.11" = type { %"struct.std::less.12" }
%"struct.std::less.12" = type { i8 }
%"class.std::__cxx11::basic_string" = type { %"struct.std::__cxx11::basic_string<char>::_Alloc_hider", i64, %union.anon }
%"struct.std::__cxx11::basic_string<char>::_Alloc_hider" = type { ptr }
%union.anon = type { i64, [8 x i8] }
%"class.std::vector.21" = type { %"struct.std::_Vector_base.22" }
%"struct.std::_Vector_base.22" = type { %"struct.std::_Vector_base<unsigned char, std::allocator<unsigned char>>::_Vector_impl" }
%"struct.std::_Vector_base<unsigned char, std::allocator<unsigned char>>::_Vector_impl" = type { %"struct.std::_Vector_base<unsigned char, std::allocator<unsigned char>>::_Vector_impl_data" }
%"struct.std::_Vector_base<unsigned char, std::allocator<unsigned char>>::_Vector_impl_data" = type { ptr, ptr, ptr }
%"class.std::map" = type { %"class.std::_Rb_tree.14" }
%"class.std::_Rb_tree.14" = type { %"struct.std::_Rb_tree<std::__cxx11::basic_string<char>, std::pair<const std::__cxx11::basic_string<char>, std::__cxx11::basic_string<char>>, std::_Select1st<std::pair<const std::__cxx11::basic_string<char>, std::__cxx11::basic_string<char>>>, std::less<std::__cxx11::basic_string<char>>>::_Rb_tree_impl" }
%"struct.std::_Rb_tree<std::__cxx11::basic_string<char>, std::pair<const std::__cxx11::basic_string<char>, std::__cxx11::basic_string<char>>, std::_Select1st<std::pair<const std::__cxx11::basic_string<char>, std::__cxx11::basic_string<char>>>, std::less<std::__cxx11::basic_string<char>>>::_Rb_tree_impl" = type { %"struct.std::_Rb_tree_key_compare.18", %"struct.std::_Rb_tree_header" }
%"struct.std::_Rb_tree_key_compare.18" = type { %"struct.std::less.19" }
%"struct.std::less.19" = type { i8 }
%"struct.zmq::blob_t" = type <{ ptr, i64, i8, [7 x i8] }>

; Function Attrs: mustprogress uwtable
define noundef i32 @_ZN3zmq14plain_client_t15process_welcomeEPKhm(ptr noundef nonnull align 8 dereferenceable(1504) %this, ptr noundef %cmd_data_, i64 noundef %data_size_) #0 align 2 {
entry:
  %retval = alloca i32, align 4
  %this.addr = alloca ptr, align 8
  %cmd_data_.addr = alloca ptr, align 8
  %data_size_.addr = alloca i64, align 8
  store ptr %this, ptr %this.addr, align 8
  store ptr %cmd_data_, ptr %cmd_data_.addr, align 8
  store i64 %data_size_, ptr %data_size_.addr, align 8
  %this1 = load ptr, ptr %this.addr, align 8
  %_state = getelementptr inbounds %"class.zmq::plain_client_t", ptr %this1, i32 0, i32 1
  %0 = load i32, ptr %_state, align 8
  %cmp = icmp ne i32 %0, 1
  br i1 %cmp, label %if.then, label %if.end

if.then:                                          ; preds = %entry
  %session = getelementptr inbounds %"class.zmq::mechanism_base_t", ptr %this1, i32 0, i32 1
  %1 = load ptr, ptr %session, align 8
  %call = call noundef ptr @_ZNK3zmq14session_base_t10get_socketEv(ptr noundef nonnull align 8 dereferenceable(1624) %1)
  %session2 = getelementptr inbounds %"class.zmq::mechanism_base_t", ptr %this1, i32 0, i32 1
  %2 = load ptr, ptr %session2, align 8
  %call3 = call noundef nonnull align 8 dereferenceable(68) ptr @_ZNK3zmq14session_base_t12get_endpointEv(ptr noundef nonnull align 8 dereferenceable(1624) %2)
  call void @_ZN3zmq13socket_base_t31event_handshake_failed_protocolERKNS_19endpoint_uri_pair_tEi(ptr noundef nonnull align 8 dereferenceable(1825) %call, ptr noundef nonnull align 8 dereferenceable(68) %call3, i32 noundef 268435457)
  %call4 = call ptr @__errno_location() #10
  store i32 71, ptr %call4, align 4
  store i32 -1, ptr %retval, align 4
  br label %return

if.end:                                           ; preds = %entry
  %3 = load i64, ptr %data_size_.addr, align 8
  %cmp5 = icmp ne i64 %3, 8
  br i1 %cmp5, label %if.then6, label %if.end12

if.then6:                                         ; preds = %if.end
  %session7 = getelementptr inbounds %"class.zmq::mechanism_base_t", ptr %this1, i32 0, i32 1
  %4 = load ptr, ptr %session7, align 8
  %call8 = call noundef ptr @_ZNK3zmq14session_base_t10get_socketEv(ptr noundef nonnull align 8 dereferenceable(1624) %4)
  %session9 = getelementptr inbounds %"class.zmq::mechanism_base_t", ptr %this1, i32 0, i32 1
  %5 = load ptr, ptr %session9, align 8
  %call10 = call noundef nonnull align 8 dereferenceable(68) ptr @_ZNK3zmq14session_base_t12get_endpointEv(ptr noundef nonnull align 8 dereferenceable(1624) %5)
  call void @_ZN3zmq13socket_base_t31event_handshake_failed_protocolERKNS_19endpoint_uri_pair_tEi(ptr noundef nonnull align 8 dereferenceable(1825) %call8, ptr noundef nonnull align 8 dereferenceable(68) %call10, i32 noundef 268435479)
  %call11 = call ptr @__errno_location() #10
  store i32 71, ptr %call11, align 4
  store i32 -1, ptr %retval, align 4
  br label %return

if.end12:                                         ; preds = %if.end
  %_state13 = getelementptr inbounds %"class.zmq::plain_client_t", ptr %this1, i32 0, i32 1
  store i32 2, ptr %_state13, align 8
  store i32 0, ptr %retval, align 4
  br label %return

return:                                           ; preds = %if.end12, %if.then6, %if.then
  %6 = load i32, ptr %retval, align 4
  ret i32 %6
}