; Function Attrs: mustprogress uwtable
define noundef i32 @_ZN3zmq14plain_client_t15process_welcomeEPKhm(ptr nocapture noundef nonnull align 8 dereferenceable(1504) %this, ptr nocapture readnone %cmd_data_, i64 noundef %data_size_) local_unnamed_addr #0 align 2 {
entry:
  %_state = getelementptr inbounds i8, ptr %this, i64 1496
  %0 = load i32, ptr %_state, align 8
  %cmp.not = icmp eq i32 %0, 1
  br i1 %cmp.not, label %if.end, label %if.then

if.then:                                          ; preds = %entry
  %session = getelementptr inbounds i8, ptr %this, i64 1488
  %1 = load ptr, ptr %session, align 8
  %call = tail call noundef ptr @_ZNK3zmq14session_base_t10get_socketEv(ptr noundef nonnull align 8 dereferenceable(1624) %1)
  %2 = load ptr, ptr %session, align 8
  %call3 = tail call noundef nonnull align 8 dereferenceable(68) ptr @_ZNK3zmq14session_base_t12get_endpointEv(ptr noundef nonnull align 8 dereferenceable(1624) %2)
  tail call void @_ZN3zmq13socket_base_t31event_handshake_failed_protocolERKNS_19endpoint_uri_pair_tEi(ptr noundef nonnull align 8 dereferenceable(1825) %call, ptr noundef nonnull align 8 dereferenceable(68) %call3, i32 noundef 268435457)
  %call4 = tail call ptr @__errno_location() #12
  store i32 71, ptr %call4, align 4
  br label %return

if.end:                                           ; preds = %entry
  %cmp5.not = icmp eq i64 %data_size_, 8
  br i1 %cmp5.not, label %if.end12, label %if.then6

if.then6:                                         ; preds = %if.end
  %session7 = getelementptr inbounds i8, ptr %this, i64 1488
  %3 = load ptr, ptr %session7, align 8
  %call8 = tail call noundef ptr @_ZNK3zmq14session_base_t10get_socketEv(ptr noundef nonnull align 8 dereferenceable(1624) %3)
  %4 = load ptr, ptr %session7, align 8
  %call10 = tail call noundef nonnull align 8 dereferenceable(68) ptr @_ZNK3zmq14session_base_t12get_endpointEv(ptr noundef nonnull align 8 dereferenceable(1624) %4)
  tail call void @_ZN3zmq13socket_base_t31event_handshake_failed_protocolERKNS_19endpoint_uri_pair_tEi(ptr noundef nonnull align 8 dereferenceable(1825) %call8, ptr noundef nonnull align 8 dereferenceable(68) %call10, i32 noundef 268435479)
  %call11 = tail call ptr @__errno_location() #12
  store i32 71, ptr %call11, align 4
  br label %return

if.end12:                                         ; preds = %if.end
  store i32 2, ptr %_state, align 8
  br label %return

return:                                           ; preds = %if.end12, %if.then6, %if.then
  %retval.0 = phi i32 [ -1, %if.then ], [ -1, %if.then6 ], [ 0, %if.end12 ]
  ret i32 %retval.0
}